target datalayout = "e-m:e-p270:32:32-p271:32:32-p272:64:64-i64:64-i128:128-f80:128-n8:16:32:64-S128"
target triple = "x86_64-pc-linux-gnu"

%"class.tinyxml2::StrPair" = type { i32, ptr, ptr }
%"class.tinyxml2::XMLDocument" = type { %"class.tinyxml2::XMLNode", i8, i8, i32, i32, %"class.tinyxml2::StrPair", i32, ptr, i32, i32, %"class.tinyxml2::DynArray", %"class.tinyxml2::MemPoolT", %"class.tinyxml2::MemPoolT.1", %"class.tinyxml2::MemPoolT.3", %"class.tinyxml2::MemPoolT.5" }
%"class.tinyxml2::XMLNode" = type { ptr, ptr, ptr, %"class.tinyxml2::StrPair", i32, ptr, ptr, ptr, ptr, ptr, ptr }
%"class.tinyxml2::DynArray" = type { ptr, [10 x ptr], i32, i32 }
%"class.tinyxml2::MemPoolT" = type { %"class.tinyxml2::MemPool", %"class.tinyxml2::DynArray.0", ptr, i32, i32, i32, i32 }
%"class.tinyxml2::MemPool" = type { ptr }
%"class.tinyxml2::DynArray.0" = type { ptr, [10 x ptr], i32, i32 }
%"class.tinyxml2::MemPoolT.1" = type { %"class.tinyxml2::MemPool", %"class.tinyxml2::DynArray.2", ptr, i32, i32, i32, i32 }
%"class.tinyxml2::DynArray.2" = type { ptr, [10 x ptr], i32, i32 }
%"class.tinyxml2::MemPoolT.3" = type { %"class.tinyxml2::MemPool", %"class.tinyxml2::DynArray.4", ptr, i32, i32, i32, i32 }
%"class.tinyxml2::DynArray.4" = type { ptr, [10 x ptr], i32, i32 }
%"class.tinyxml2::MemPoolT.5" = type { %"class.tinyxml2::MemPool", %"class.tinyxml2::DynArray.6", ptr, i32, i32, i32, i32 }
%"class.tinyxml2::DynArray.6" = type { ptr, [10 x ptr], i32, i32 }

@_ZN8tinyxml210XMLCommentC1EPNS_11XMLDocumentE = unnamed_addr alias void (ptr, ptr), ptr @_ZN8tinyxml210XMLCommentC2EPNS_11XMLDocumentE

; Function Attrs: mustprogress nounwind uwtable
define void @_ZN8tinyxml27StrPair5ResetEv(ptr noundef nonnull align 8 dereferenceable(24) %0) #0 align 2 {
  %2 = alloca ptr, align 8
  store ptr %0, ptr %2, align 8, !tbaa !3
  %3 = load ptr, ptr %2, align 8
  %4 = getelementptr inbounds nuw %"class.tinyxml2::StrPair", ptr %3, i32 0, i32 0
  %5 = load i32, ptr %4, align 8, !tbaa !8
  %6 = and i32 %5, 512
  %7 = icmp ne i32 %6, 0
  br i1 %7, label %8, label %14

8:                                                ; preds = %1
  %9 = getelementptr inbounds nuw %"class.tinyxml2::StrPair", ptr %3, i32 0, i32 1
  %10 = load ptr, ptr %9, align 8, !tbaa !12
  %11 = icmp eq ptr %10, null
  br i1 %11, label %13, label %12

12:                                               ; preds = %8
  call void @_ZdaPv(ptr noundef %10) #17
  br label %13

13:                                               ; preds = %12, %8
  br label %14

14:                                               ; preds = %13, %1
  %15 = getelementptr inbounds nuw %"class.tinyxml2::StrPair", ptr %3, i32 0, i32 0
  store i32 0, ptr %15, align 8, !tbaa !8
  %16 = getelementptr inbounds nuw %"class.tinyxml2::StrPair", ptr %3, i32 0, i32 1
  store ptr null, ptr %16, align 8, !tbaa !12
  %17 = getelementptr inbounds nuw %"class.tinyxml2::StrPair", ptr %3, i32 0, i32 2
  store ptr null, ptr %17, align 8, !tbaa !13
  ret void
}

; Function Attrs: mustprogress uwtable
define linkonce_odr hidden void @_ZN8tinyxml28DynArrayIPNS_7XMLNodeELi10EE14EnsureCapacityEi(ptr noundef nonnull align 8 dereferenceable(96) %0, i32 noundef %1) #2 comdat align 2 {
  %3 = alloca ptr, align 8
  %4 = alloca i32, align 4
  %5 = alloca i32, align 4
  %6 = alloca ptr, align 8
  store ptr %0, ptr %3, align 8, !tbaa !170
  store i32 %1, ptr %4, align 4, !tbaa !15
  %7 = load ptr, ptr %3, align 8
  %8 = load i32, ptr %4, align 4, !tbaa !15
  %9 = getelementptr inbounds nuw %"class.tinyxml2::DynArray", ptr %7, i32 0, i32 2
  %10 = load i32, ptr %9, align 8, !tbaa !173
  %11 = icmp sgt i32 %8, %10
  br i1 %11, label %12, label %45

12:                                               ; preds = %2
  call void @llvm.lifetime.start.p0(i64 4, ptr %5) #18
  %13 = load i32, ptr %4, align 4, !tbaa !15
  %14 = mul nsw i32 %13, 2
  store i32 %14, ptr %5, align 4, !tbaa !15
  call void @llvm.lifetime.start.p0(i64 8, ptr %6) #18
  %15 = load i32, ptr %5, align 4, !tbaa !15
  %16 = sext i32 %15 to i64
  %17 = call { i64, i1 } @llvm.umul.with.overflow.i64(i64 %16, i64 8)
  %18 = extractvalue { i64, i1 } %17, 1
  %19 = extractvalue { i64, i1 } %17, 0
  %20 = select i1 %18, i64 -1, i64 %19
  %21 = call noalias noundef nonnull ptr @_Znam(i64 noundef %20) #20
  store ptr %21, ptr %6, align 8, !tbaa !58
  %22 = load ptr, ptr %6, align 8, !tbaa !58
  %23 = getelementptr inbounds nuw %"class.tinyxml2::DynArray", ptr %7, i32 0, i32 0
  %24 = load ptr, ptr %23, align 8, !tbaa !172
  %25 = getelementptr inbounds nuw %"class.tinyxml2::DynArray", ptr %7, i32 0, i32 3
  %26 = load i32, ptr %25, align 4, !tbaa !174
  %27 = sext i32 %26 to i64
  %28 = mul i64 8, %27
  call void @llvm.memcpy.p0.p0.i64(ptr align 8 %22, ptr align 8 %24, i64 %28, i1 false)
  %29 = getelementptr inbounds nuw %"class.tinyxml2::DynArray", ptr %7, i32 0, i32 0
  %30 = load ptr, ptr %29, align 8, !tbaa !172
  %31 = getelementptr inbounds nuw %"class.tinyxml2::DynArray", ptr %7, i32 0, i32 1
  %32 = getelementptr inbounds [10 x ptr], ptr %31, i64 0, i64 0
  %33 = icmp ne ptr %30, %32
  br i1 %33, label %34, label %40

34:                                               ; preds = %12
  %35 = getelementptr inbounds nuw %"class.tinyxml2::DynArray", ptr %7, i32 0, i32 0
  %36 = load ptr, ptr %35, align 8, !tbaa !172
  %37 = icmp eq ptr %36, null
  br i1 %37, label %39, label %38

38:                                               ; preds = %34
  call void @_ZdaPv(ptr noundef %36) #17
  br label %39

39:                                               ; preds = %38, %34
  br label %40

40:                                               ; preds = %39, %12
  %41 = load ptr, ptr %6, align 8, !tbaa !58
  %42 = getelementptr inbounds nuw %"class.tinyxml2::DynArray", ptr %7, i32 0, i32 0
  store ptr %41, ptr %42, align 8, !tbaa !172
  %43 = load i32, ptr %5, align 4, !tbaa !15
  %44 = getelementptr inbounds nuw %"class.tinyxml2::DynArray", ptr %7, i32 0, i32 2
  store i32 %43, ptr %44, align 8, !tbaa !173
  call void @llvm.lifetime.end.p0(i64 8, ptr %6) #18
  call void @llvm.lifetime.end.p0(i64 4, ptr %5) #18
  br label %45

45:                                               ; preds = %40, %2
  ret void
}

; Function Attrs: mustprogress uwtable
define void @_ZN8tinyxml27StrPair6SetStrEPKci(ptr noundef nonnull align 8 dereferenceable(24) %0, ptr noundef %1, i32 noundef %2) #2 align 2 {
  %4 = alloca ptr, align 8
  %5 = alloca ptr, align 8
  %6 = alloca i32, align 4
  %7 = alloca i64, align 8
  store ptr %0, ptr %4, align 8, !tbaa !3
  store ptr %1, ptr %5, align 8, !tbaa !14
  store i32 %2, ptr %6, align 4, !tbaa !15
  %8 = load ptr, ptr %4, align 8
  call void @_ZN8tinyxml27StrPair5ResetEv(ptr noundef nonnull align 8 dereferenceable(24) %8)
  call void @llvm.lifetime.start.p0(i64 8, ptr %7) #18
  %9 = load ptr, ptr %5, align 8, !tbaa !14
  %10 = call i64 @strlen(ptr noundef %9) #19
  store i64 %10, ptr %7, align 8, !tbaa !16
  %11 = load i64, ptr %7, align 8, !tbaa !16
  %12 = add i64 %11, 1
  %13 = call noalias noundef nonnull ptr @_Znam(i64 noundef %12) #20
  %14 = getelementptr inbounds nuw %"class.tinyxml2::StrPair", ptr %8, i32 0, i32 1
  store ptr %13, ptr %14, align 8, !tbaa !12
  %15 = getelementptr inbounds nuw %"class.tinyxml2::StrPair", ptr %8, i32 0, i32 1
  %16 = load ptr, ptr %15, align 8, !tbaa !12
  %17 = load ptr, ptr %5, align 8, !tbaa !14
  %18 = load i64, ptr %7, align 8, !tbaa !16
  %19 = add i64 %18, 1
  call void @llvm.memcpy.p0.p0.i64(ptr align 1 %16, ptr align 1 %17, i64 %19, i1 false)
  %20 = getelementptr inbounds nuw %"class.tinyxml2::StrPair", ptr %8, i32 0, i32 1
  %21 = load ptr, ptr %20, align 8, !tbaa !12
  %22 = load i64, ptr %7, align 8, !tbaa !16
  %23 = getelementptr inbounds nuw i8, ptr %21, i64 %22
  %24 = getelementptr inbounds nuw %"class.tinyxml2::StrPair", ptr %8, i32 0, i32 2
  store ptr %23, ptr %24, align 8, !tbaa !13
  %25 = load i32, ptr %6, align 4, !tbaa !15
  %26 = or i32 %25, 512
  %27 = getelementptr inbounds nuw %"class.tinyxml2::StrPair", ptr %8, i32 0, i32 0
  store i32 %26, ptr %27, align 8, !tbaa !8
  call void @llvm.lifetime.end.p0(i64 8, ptr %7) #18
  ret void
}

; Function Attrs: mustprogress nounwind uwtable
define linkonce_odr hidden void @_ZN8tinyxml27StrPair14SetInternedStrEPKc(ptr noundef nonnull align 8 dereferenceable(24) %0, ptr noundef %1) #0 comdat align 2 {
  %3 = alloca ptr, align 8
  %4 = alloca ptr, align 8
  store ptr %0, ptr %3, align 8, !tbaa !3
  store ptr %1, ptr %4, align 8, !tbaa !14
  %5 = load ptr, ptr %3, align 8
  call void @_ZN8tinyxml27StrPair5ResetEv(ptr noundef nonnull align 8 dereferenceable(24) %5)
  %6 = load ptr, ptr %4, align 8, !tbaa !14
  %7 = getelementptr inbounds nuw %"class.tinyxml2::StrPair", ptr %5, i32 0, i32 1
  store ptr %6, ptr %7, align 8, !tbaa !12
  ret void
}

; Function Attrs: mustprogress uwtable
define linkonce_odr hidden void @_ZN8tinyxml28DynArrayIPNS_7XMLNodeELi10EE4PushES2_(ptr noundef nonnull align 8 dereferenceable(96) %0, ptr noundef %1) #2 comdat align 2 {
  %3 = alloca ptr, align 8
  %4 = alloca ptr, align 8
  store ptr %0, ptr %3, align 8, !tbaa !170
  store ptr %1, ptr %4, align 8, !tbaa !85
  %5 = load ptr, ptr %3, align 8
  %6 = getelementptr inbounds nuw %"class.tinyxml2::DynArray", ptr %5, i32 0, i32 3
  %7 = load i32, ptr %6, align 4, !tbaa !174
  %8 = add nsw i32 %7, 1
  call void @_ZN8tinyxml28DynArrayIPNS_7XMLNodeELi10EE14EnsureCapacityEi(ptr noundef nonnull align 8 dereferenceable(96) %5, i32 noundef %8)
  %9 = load ptr, ptr %4, align 8, !tbaa !85
  %10 = getelementptr inbounds nuw %"class.tinyxml2::DynArray", ptr %5, i32 0, i32 0
  %11 = load ptr, ptr %10, align 8, !tbaa !172
  %12 = getelementptr inbounds nuw %"class.tinyxml2::DynArray", ptr %5, i32 0, i32 3
  %13 = load i32, ptr %12, align 4, !tbaa !174
  %14 = sext i32 %13 to i64
  %15 = getelementptr inbounds ptr, ptr %11, i64 %14
  store ptr %9, ptr %15, align 8, !tbaa !85
  %16 = getelementptr inbounds nuw %"class.tinyxml2::DynArray", ptr %5, i32 0, i32 3
  %17 = load i32, ptr %16, align 4, !tbaa !174
  %18 = add nsw i32 %17, 1
  store i32 %18, ptr %16, align 4, !tbaa !174
  ret void
}

; Function Attrs: mustprogress uwtable
define void @_ZN8tinyxml27XMLNode8SetValueEPKcb(ptr noundef nonnull align 8 dereferenceable(104) %0, ptr noundef %1, i1 noundef zeroext %2) #2 align 2 {
  %4 = alloca ptr, align 8
  %5 = alloca ptr, align 8
  %6 = alloca i8, align 1
  store ptr %0, ptr %4, align 8, !tbaa !85
  store ptr %1, ptr %5, align 8, !tbaa !14
  %7 = zext i1 %2 to i8
  store i8 %7, ptr %6, align 1, !tbaa !26
  %8 = load ptr, ptr %4, align 8
  %9 = load i8, ptr %6, align 1, !tbaa !26, !range !35, !noundef !36
  %10 = trunc i8 %9 to i1
  br i1 %10, label %11, label %14

11:                                               ; preds = %3
  %12 = getelementptr inbounds nuw %"class.tinyxml2::XMLNode", ptr %8, i32 0, i32 3
  %13 = load ptr, ptr %5, align 8, !tbaa !14
  call void @_ZN8tinyxml27StrPair14SetInternedStrEPKc(ptr noundef nonnull align 8 dereferenceable(24) %12, ptr noundef %13)
  br label %17

14:                                               ; preds = %3
  %15 = getelementptr inbounds nuw %"class.tinyxml2::XMLNode", ptr %8, i32 0, i32 3
  %16 = load ptr, ptr %5, align 8, !tbaa !14
  call void @_ZN8tinyxml27StrPair6SetStrEPKci(ptr noundef nonnull align 8 dereferenceable(24) %15, ptr noundef %16, i32 noundef 0)
  br label %17

17:                                               ; preds = %14, %11
  ret void
}

; Function Attrs: inlinehint mustprogress uwtable
define linkonce_odr hidden noundef ptr @_ZN8tinyxml211XMLDocument18CreateUnlinkedNodeINS_10XMLCommentELi104EEEPT_RNS_8MemPoolTIXT0_EEE(ptr noundef nonnull align 8 dereferenceable(776) %0, ptr noundef nonnull align 8 dereferenceable(128) %1) #11 comdat align 2 {
  %3 = alloca ptr, align 8
  %4 = alloca ptr, align 8
  %5 = alloca ptr, align 8
  store ptr %0, ptr %3, align 8, !tbaa !56
  store ptr %1, ptr %4, align 8, !tbaa !89
  %6 = load ptr, ptr %3, align 8
  call void @llvm.lifetime.start.p0(i64 8, ptr %5) #18
  %7 = load ptr, ptr %4, align 8, !tbaa !89
  %8 = load ptr, ptr %7, align 8, !tbaa !91
  %9 = getelementptr inbounds ptr, ptr %8, i64 3
  %10 = load ptr, ptr %9, align 8
  %11 = call noundef ptr %10(ptr noundef nonnull align 8 dereferenceable(128) %7)
  call void @_ZN8tinyxml210XMLCommentC1EPNS_11XMLDocumentE(ptr noundef nonnull align 8 dereferenceable(104) %11, ptr noundef %6)
  store ptr %11, ptr %5, align 8, !tbaa !96
  %12 = load ptr, ptr %4, align 8, !tbaa !89
  %13 = load ptr, ptr %5, align 8, !tbaa !96
  %14 = getelementptr inbounds nuw %"class.tinyxml2::XMLNode", ptr %13, i32 0, i32 10
  store ptr %12, ptr %14, align 8, !tbaa !95
  %15 = getelementptr inbounds nuw %"class.tinyxml2::XMLDocument", ptr %6, i32 0, i32 10
  %16 = load ptr, ptr %5, align 8, !tbaa !96
  call void @_ZN8tinyxml28DynArrayIPNS_7XMLNodeELi10EE4PushES2_(ptr noundef nonnull align 8 dereferenceable(96) %15, ptr noundef %16)
  %17 = load ptr, ptr %5, align 8, !tbaa !96
  call void @llvm.lifetime.end.p0(i64 8, ptr %5) #18
  ret ptr %17
}

; Function Attrs: mustprogress uwtable
define noundef ptr @_ZN8tinyxml211XMLDocument10NewCommentEPKc(ptr noundef nonnull align 8 dereferenceable(776) %0, ptr noundef %1) #2 align 2 {
  %3 = alloca ptr, align 8
  %4 = alloca ptr, align 8
  %5 = alloca ptr, align 8
  store ptr %0, ptr %3, align 8, !tbaa !56
  store ptr %1, ptr %4, align 8, !tbaa !14
  %6 = load ptr, ptr %3, align 8
  call void @llvm.lifetime.start.p0(i64 8, ptr %5) #18
  %7 = getelementptr inbounds nuw %"class.tinyxml2::XMLDocument", ptr %6, i32 0, i32 14
  %8 = call noundef ptr @_ZN8tinyxml211XMLDocument18CreateUnlinkedNodeINS_10XMLCommentELi104EEEPT_RNS_8MemPoolTIXT0_EEE(ptr noundef nonnull align 8 dereferenceable(776) %6, ptr noundef nonnull align 8 dereferenceable(128) %7)
  store ptr %8, ptr %5, align 8, !tbaa !96
  %9 = load ptr, ptr %5, align 8, !tbaa !96
  %10 = load ptr, ptr %4, align 8, !tbaa !14
  call void @_ZN8tinyxml27XMLNode8SetValueEPKcb(ptr noundef nonnull align 8 dereferenceable(104) %9, ptr noundef %10, i1 noundef zeroext false)
  %11 = load ptr, ptr %5, align 8, !tbaa !96
  call void @llvm.lifetime.end.p0(i64 8, ptr %5) #18
  ret ptr %11
}