; Function Attrs: mustprogress uwtable
define noundef ptr @_ZN8tinyxml211XMLDocument10NewCommentEPKc(ptr noundef nonnull align 8 dereferenceable(776) %0, ptr noundef readonly captures(none) %1) local_unnamed_addr #4 align 2 {
  %3 = getelementptr inbounds nuw i8, ptr %0, i64 648
  %4 = load ptr, ptr %3, align 8, !tbaa !63
  %5 = getelementptr inbounds nuw i8, ptr %4, i64 24
  %6 = load ptr, ptr %5, align 8
  %7 = tail call noundef ptr %6(ptr noundef nonnull align 8 dereferenceable(128) %3)
  tail call void @_ZN8tinyxml210XMLCommentC1EPNS_11XMLDocumentE(ptr noundef nonnull align 8 dereferenceable(104) %7, ptr noundef nonnull align 8 dereferenceable(776) %0)
  %8 = getelementptr inbounds nuw i8, ptr %7, i64 96
  store ptr %3, ptr %8, align 8, !tbaa !65
  %9 = getelementptr inbounds nuw i8, ptr %0, i64 168
  %10 = getelementptr inbounds nuw i8, ptr %0, i64 260
  %11 = load i32, ptr %10, align 4, !tbaa !66
  %12 = getelementptr inbounds nuw i8, ptr %0, i64 256
  %13 = load i32, ptr %12, align 8, !tbaa !67
  %.not.i.i = icmp slt i32 %11, %13
  br i1 %.not.i.i, label %._ZN8tinyxml28DynArrayIPNS_7XMLNodeELi10EE14EnsureCapacityEi.exit_crit_edge.i.i, label %14

._ZN8tinyxml28DynArrayIPNS_7XMLNodeELi10EE14EnsureCapacityEi.exit_crit_edge.i.i: ; preds = %2
  %.pre.i.i = load ptr, ptr %9, align 8, !tbaa !68
  br label %_ZN8tinyxml211XMLDocument18CreateUnlinkedNodeINS_10XMLCommentELi104EEEPT_RNS_8MemPoolTIXT0_EEE.exit

14:                                               ; preds = %2
  %15 = shl i32 %11, 1
  %16 = add i32 %15, 2
  %17 = sext i32 %16 to i64
  %18 = icmp slt i32 %11, -1
  %19 = shl nsw i64 %17, 3
  %20 = select i1 %18, i64 -1, i64 %19
  %21 = tail call noalias noundef nonnull ptr @_Znam(i64 noundef %20) #34
  %22 = load ptr, ptr %9, align 8, !tbaa !68
  %23 = sext i32 %11 to i64
  %24 = shl nsw i64 %23, 3
  tail call void @llvm.memcpy.p0.p0.i64(ptr nonnull align 8 %21, ptr align 8 %22, i64 %24, i1 false)
  %25 = getelementptr inbounds nuw i8, ptr %0, i64 176
  %.not.i.i.i = icmp eq ptr %22, %25
  %26 = icmp eq ptr %22, null
  %or.cond.i.i.i = or i1 %.not.i.i.i, %26
  br i1 %or.cond.i.i.i, label %28, label %27

27:                                               ; preds = %14
  tail call void @_ZdaPv(ptr noundef nonnull %22) #30
  %.pre2.pre.i.i = load i32, ptr %10, align 4, !tbaa !66
  br label %28

28:                                               ; preds = %27, %14
  %.pre2.i.i = phi i32 [ %.pre2.pre.i.i, %27 ], [ %11, %14 ]
  store ptr %21, ptr %9, align 8, !tbaa !68
  store i32 %16, ptr %12, align 8, !tbaa !67
  br label %_ZN8tinyxml211XMLDocument18CreateUnlinkedNodeINS_10XMLCommentELi104EEEPT_RNS_8MemPoolTIXT0_EEE.exit

_ZN8tinyxml211XMLDocument18CreateUnlinkedNodeINS_10XMLCommentELi104EEEPT_RNS_8MemPoolTIXT0_EEE.exit: ; preds = %._ZN8tinyxml28DynArrayIPNS_7XMLNodeELi10EE14EnsureCapacityEi.exit_crit_edge.i.i, %28
  %29 = phi i32 [ %11, %._ZN8tinyxml28DynArrayIPNS_7XMLNodeELi10EE14EnsureCapacityEi.exit_crit_edge.i.i ], [ %.pre2.i.i, %28 ]
  %30 = phi ptr [ %.pre.i.i, %._ZN8tinyxml28DynArrayIPNS_7XMLNodeELi10EE14EnsureCapacityEi.exit_crit_edge.i.i ], [ %21, %28 ]
  %31 = sext i32 %29 to i64
  %32 = getelementptr inbounds ptr, ptr %30, i64 %31
  store ptr %7, ptr %32, align 8, !tbaa !69
  %33 = add nsw i32 %29, 1
  store i32 %33, ptr %10, align 4, !tbaa !66
  %34 = getelementptr inbounds nuw i8, ptr %7, i64 24
  %35 = load i32, ptr %34, align 8, !tbaa !3
  %36 = and i32 %35, 512
  %.not.i.i.i4 = icmp eq i32 %36, 0
  br i1 %.not.i.i.i4, label %_ZN8tinyxml27XMLNode8SetValueEPKcb.exit, label %37

37:                                               ; preds = %_ZN8tinyxml211XMLDocument18CreateUnlinkedNodeINS_10XMLCommentELi104EEEPT_RNS_8MemPoolTIXT0_EEE.exit
  %38 = getelementptr inbounds nuw i8, ptr %7, i64 32
  %39 = load ptr, ptr %38, align 8, !tbaa !10
  %40 = icmp eq ptr %39, null
  br i1 %40, label %_ZN8tinyxml27XMLNode8SetValueEPKcb.exit, label %41

41:                                               ; preds = %37
  tail call void @_ZdaPv(ptr noundef nonnull %39) #30
  br label %_ZN8tinyxml27XMLNode8SetValueEPKcb.exit

_ZN8tinyxml27XMLNode8SetValueEPKcb.exit:          ; preds = %_ZN8tinyxml211XMLDocument18CreateUnlinkedNodeINS_10XMLCommentELi104EEEPT_RNS_8MemPoolTIXT0_EEE.exit, %37, %41
  store i32 0, ptr %34, align 8, !tbaa !3
  %42 = getelementptr inbounds nuw i8, ptr %7, i64 32
  tail call void @llvm.memset.p0.i64(ptr noundef nonnull align 8 dereferenceable(16) %42, i8 0, i64 16, i1 false)
  %43 = tail call i64 @strlen(ptr noundef nonnull readonly dereferenceable(1) %1) #33
  %44 = add i64 %43, 1
  %45 = tail call noalias noundef nonnull ptr @_Znam(i64 noundef %44) #34
  store ptr %45, ptr %42, align 8, !tbaa !10
  tail call void @llvm.memcpy.p0.p0.i64(ptr nonnull align 1 %45, ptr nonnull readonly align 1 %1, i64 %44, i1 false)
  %46 = getelementptr inbounds nuw i8, ptr %45, i64 %43
  %47 = getelementptr inbounds nuw i8, ptr %7, i64 40
  store ptr %46, ptr %47, align 8, !tbaa !11
  store i32 512, ptr %34, align 8, !tbaa !3
  ret ptr %7
}